Certificate:
    Data:
        Version: 3 (0x2)
        Serial Number:
            0a:f0:ae:9b:e1:c8:c9:18:3e:25:16:e5:bc:f1:5f:15:9d:cf:f4:29
        Signature Algorithm: sha256WithRSAEncryption
        Issuer: C=AU, ST=Some-State, O=Internet Widgits Pty Ltd, CN=ca
        Validity
            Not Before: Oct  2 04:12:18 2023 GMT
            Not After : Oct  1 04:12:18 2024 GMT
        Subject: C=AU, ST=Some-State, O=Internet Widgits Pty Ltd, CN=localhost
        Subject Public Key Info:
            Public Key Algorithm: rsaEncryption
                Public-Key: (2048 bit)
                Modulus:
                    00:c0:04:8b:2e:00:fb:9a:d3:39:2c:b1:22:29:c8:
                    72:4c:28:8c:6c:33:d1:80:50:b4:bd:b0:9a:06:96:
                    6a:98:60:a0:49:80:0e:f8:24:05:da:e1:da:67:6f:
                    aa:e6:b2:44:6b:75:6d:1a:14:82:3f:eb:b0:c2:65:
                    53:94:52:02:3f:1f:01:fc:dd:2f:fd:7d:7e:f7:d6:
                    6b:c7:87:a1:47:2b:de:2b:7f:1c:61:87:e0:ba:9f:
                    c9:7e:36:8b:bf:86:97:6d:bc:02:71:9d:8b:37:e5:
                    90:fa:6a:84:09:08:04:7d:23:6a:48:a2:0c:9f:ee:
                    05:66:94:91:bc:7e:65:1f:e6:d3:a2:02:ba:1a:d0:
                    c3:58:e6:ca:24:22:c6:40:08:3d:2f:68:c6:e8:f1:
                    67:70:26:45:34:c1:57:3d:36:ef:b0:e6:65:b0:cb:
                    94:78:39:ad:ab:b8:99:d4:f2:4f:5e:8a:9f:7e:61:
                    1c:5c:21:a9:ea:c7:43:52:77:7a:7c:23:33:d3:b9:
                    1f:55:54:3b:49:e2:1c:ef:8e:97:7a:64:9c:be:ed:
                    3a:75:73:2e:f5:74:ea:43:59:55:a1:52:7c:22:47:
                    2b:a3:d4:7c:31:a9:fe:1d:7b:99:96:75:dd:e7:f0:
                    92:5f:a2:3b:7a:0a:37:f8:3f:fd:cb:89:b5:71:31:
                    56:d9
                Exponent: 65537 (0x10001)
        X509v3 extensions:
            X509v3 Basic Constraints: 
                CA:FALSE
            X509v3 Subject Key Identifier: 
                D7:F5:E4:68:D8:F9:CA:1B:A7:95:8D:40:68:4C:37:86:A8:19:5C:D4
            X509v3 Authority Key Identifier: 
                5F:DC:E3:5E:03:D0:F9:94:7C:DA:4D:17:17:A8:67:D0:08:9C:5A:9F
    Signature Algorithm: sha256WithRSAEncryption
    Signature Value:
        5b:53:09:f5:f4:29:2f:43:a7:ff:37:6e:20:3a:c4:ef:d0:e5:
        35:f7:45:75:73:b7:0e:09:51:94:1b:2b:88:a0:be:0f:02:58:
        52:6f:aa:71:90:33:80:f3:db:1f:75:89:93:0c:8d:d2:99:18:
        4c:22:3f:6e:c1:23:3d:b4:51:d6:81:81:cb:40:9d:d5:5e:2a:
        4a:5c:d8:6e:7d:09:67:a4:34:fb:c8:02:d9:03:d4:d8:f9:35:
        32:9b:a1:56:b8:5a:83:2c:3b:1b:99:fe:7b:fb:d9:d5:0f:65:
        10:22:15:ab:2f:1e:75:a9:de:e8:f3:7c:6e:c0:51:88:07:8e:
        c1:4c:af:63:8d:aa:a6:87:d2:15:7e:8b:17:35:49:51:28:74:
        1a:86:5f:fd:f1:c1:b3:3e:2d:19:e5:58:69:59:25:70:31:e9:
        15:e9:b6:e2:f7:9c:7a:aa:ed:24:04:63:37:f1:82:f3:92:5a:
        20:90:72:9c:89:ab:47:53:51:37:68:4d:41:95:63:68:78:35:
        d7:bb:6b:ac:0d:38:3d:14:9c:ce:7f:29:62:c0:c1:f3:5c:e6:
        45:ce:a1:14:75:d5:52:b9:b4:a1:1c:02:2e:e0:78:f1:c2:26:
        df:6f:27:34:c3:59:73:2a:b8:8e:f4:1e:ac:be:a4:91:f7:f9:
        63:2a:6e:c9
-----BEGIN CERTIFICATE-----
MIIDhjCCAm6gAwIBAgIUCvCum+HIyRg+JRblvPFfFZ3P9CkwDQYJKoZIhvcNAQEL
BQAwUjELMAkGA1UEBhMCQVUxEzARBgNVBAgMClNvbWUtU3RhdGUxITAfBgNVBAoM
GEludGVybmV0IFdpZGdpdHMgUHR5IEx0ZDELMAkGA1UEAwwCY2EwHhcNMjMxMDAy
MDQxMjE4WhcNMjQxMDAxMDQxMjE4WjBZMQswCQYDVQQGEwJBVTETMBEGA1UECAwK
U29tZS1TdGF0ZTEhMB8GA1UECgwYSW50ZXJuZXQgV2lkZ2l0cyBQdHkgTHRkMRIw
EAYDVQQDDAlsb2NhbGhvc3QwggEiMA0GCSqGSIb3DQEBAQUAA4IBDwAwggEKAoIB
AQDABIsuAPua0zkssSIpyHJMKIxsM9GAULS9sJoGlmqYYKBJgA74JAXa4dpnb6rm
skRrdW0aFII/67DCZVOUUgI/HwH83S/9fX731mvHh6FHK94rfxxhh+C6n8l+Nou/
hpdtvAJxnYs35ZD6aoQJCAR9I2pIogyf7gVmlJG8fmUf5tOiAroa0MNY5sokIsZA
CD0vaMbo8WdwJkU0wVc9Nu+w5mWwy5R4Oa2ruJnU8k9eip9+YRxcIanqx0NSd3p8
IzPTuR9VVDtJ4hzvjpd6ZJy+7Tp1cy71dOpDWVWhUnwiRyuj1Hwxqf4de5mWdd3n
8JJfojt6Cjf4P/3LibVxMVbZAgMBAAGjTTBLMAkGA1UdEwQCMAAwHQYDVR0OBBYE
FNf15GjY+cobp5WNQGhMN4aoGVzUMB8GA1UdIwQYMBaAFF/c414D0PmUfNpNFxeo
Z9AInFqfMA0GCSqGSIb3DQEBCwUAA4IBAQBbUwn19CkvQ6f/N24gOsTv0OU190V1
c7cOCVGUGyuIoL4PAlhSb6pxkDOA89sfdYmTDI3SmRhMIj9uwSM9tFHWgYHLQJ3V
XipKXNhufQlnpDT7yALZA9TY+TUym6FWuFqDLDsbmf57+9nVD2UQIhWrLx51qd7o
83xuwFGIB47BTK9jjaqmh9IVfosXNUlRKHQahl/98cGzPi0Z5VhpWSVwMekV6bbi
95x6qu0kBGM38YLzklogkHKciatHU1E3aE1BlWNoeDXXu2usDTg9FJzOfyliwMHz
XOZFzqEUddVSubShHAIu4Hjxwibfbyc0w1lzKriO9B6svqSR9/ljKm7J
-----END CERTIFICATE-----
